target datalayout = "e-m:e-p270:32:32-p271:32:32-p272:64:64-i64:64-i128:128-f80:128-n8:16:32:64-S128"
target triple = "x86_64-pc-linux-gnu"

; Function Attrs: nounwind uwtable
define void @lv_imagebutton_set_state(ptr noundef %0, i32 noundef %1) #0 {
  %3 = alloca ptr, align 8
  %4 = alloca i32, align 4
  %5 = alloca i16, align 2
  store ptr %0, ptr %3, align 8, !tbaa !3
  store i32 %1, ptr %4, align 4, !tbaa !7
  br label %6

6:                                                ; preds = %2
  br label %7

7:                                                ; preds = %6
  call void @llvm.lifetime.start.p0(i64 2, ptr %5) #5
  store i16 0, ptr %5, align 2, !tbaa !16
  %8 = load i32, ptr %4, align 4, !tbaa !7
  %9 = icmp eq i32 %8, 1
  br i1 %9, label %13, label %10

10:                                               ; preds = %7
  %11 = load i32, ptr %4, align 4, !tbaa !7
  %12 = icmp eq i32 %11, 4
  br i1 %12, label %13, label %18

13:                                               ; preds = %10, %7
  %14 = load i16, ptr %5, align 2, !tbaa !16
  %15 = zext i16 %14 to i32
  %16 = or i32 %15, 32
  %17 = trunc i32 %16 to i16
  store i16 %17, ptr %5, align 2, !tbaa !16
  br label %18

18:                                               ; preds = %13, %10
  %19 = load i32, ptr %4, align 4, !tbaa !7
  %20 = icmp eq i32 %19, 2
  br i1 %20, label %24, label %21

21:                                               ; preds = %18
  %22 = load i32, ptr %4, align 4, !tbaa !7
  %23 = icmp eq i32 %22, 5
  br i1 %23, label %24, label %29

24:                                               ; preds = %21, %18
  %25 = load i16, ptr %5, align 2, !tbaa !16
  %26 = zext i16 %25 to i32
  %27 = or i32 %26, 128
  %28 = trunc i32 %27 to i16
  store i16 %28, ptr %5, align 2, !tbaa !16
  br label %29

29:                                               ; preds = %24, %21
  %30 = load i32, ptr %4, align 4, !tbaa !7
  %31 = icmp eq i32 %30, 5
  br i1 %31, label %38, label %32

32:                                               ; preds = %29
  %33 = load i32, ptr %4, align 4, !tbaa !7
  %34 = icmp eq i32 %33, 4
  br i1 %34, label %38, label %35

35:                                               ; preds = %32
  %36 = load i32, ptr %4, align 4, !tbaa !7
  %37 = icmp eq i32 %36, 3
  br i1 %37, label %38, label %43

38:                                               ; preds = %35, %32, %29
  %39 = load i16, ptr %5, align 2, !tbaa !16
  %40 = zext i16 %39 to i32
  %41 = or i32 %40, 1
  %42 = trunc i32 %41 to i16
  store i16 %42, ptr %5, align 2, !tbaa !16
  br label %43

43:                                               ; preds = %38, %35
  %44 = load ptr, ptr %3, align 8, !tbaa !3
  call void @lv_obj_remove_state(ptr noundef %44, i16 noundef zeroext 161)
  %45 = load ptr, ptr %3, align 8, !tbaa !3
  %46 = load i16, ptr %5, align 2, !tbaa !16
  call void @lv_obj_add_state(ptr noundef %45, i16 noundef zeroext %46)
  %47 = load ptr, ptr %3, align 8, !tbaa !3
  call void @refr_image(ptr noundef %47)
  call void @llvm.lifetime.end.p0(i64 2, ptr %5) #5
  ret void
}