; Function Attrs: nounwind uwtable
define void @lv_imagebutton_set_state(ptr noundef %0, i32 noundef %1) local_unnamed_addr #0 {
  %switch.selectcmp.case1 = icmp eq i32 %1, 4
  %switch.selectcmp.case2 = icmp eq i32 %1, 1
  %switch.selectcmp = or i1 %switch.selectcmp.case1, %switch.selectcmp.case2
  %3 = select i1 %switch.selectcmp, i16 32, i16 0
  switch i32 %1, label %6 [
    i32 5, label %4
    i32 2, label %4
  ]

4:                                                ; preds = %2, %2
  %5 = or disjoint i16 %3, 128
  br label %6

6:                                                ; preds = %2, %4
  %.1 = phi i16 [ %5, %4 ], [ %3, %2 ]
  %.off = add i32 %1, -3
  %switch = icmp ult i32 %.off, 3
  %7 = zext i1 %switch to i16
  %spec.select = or i16 %.1, %7
  tail call void @lv_obj_remove_state(ptr noundef %0, i16 noundef zeroext 161) #6
  tail call void @lv_obj_add_state(ptr noundef %0, i16 noundef zeroext %spec.select) #6
  tail call fastcc void @refr_image(ptr noundef %0)
  ret void
}